#include <math.h>
#include <stdio.h>
#include <stdlib.h>
#include <string.h>
#include <iostream>
using namespace std;

int main()
{
 int inta=0,i,a=0,b=0;//inta????????i?????
	  cin>>inta;
	  for(i=0;;i++)
	  {
		  if(inta%2==0)
		  {
			  
			  a=inta/2;
			  cout<<inta<<"/2="<<a<<endl;
			  inta=a;
		  }
		  
		  if(inta%2!=0&&inta!=1)
		  {
			  
			  b=inta*3+1;
			  cout<<inta<<"*3"<<"+1="<<b<<endl;
			  inta=b;
		  }
		  
		  if(inta==1)
		  {
			  break;
			  
		  }
			 
	  }

cout<<"End";  
  
   cin.get();cin.get();cin.get();cin.get();
   return 0;
}